target datalayout = "e-m:e-p270:32:32-p271:32:32-p272:64:64-i64:64-i128:128-f80:128-n8:16:32:64-S128"
target triple = "x86_64-unknown-linux-gnu"

%"struct.node::AssertionInfo" = type { ptr, ptr, ptr }
%"class.node::quic::CID" = type { %"class.node::MemoryRetainer", %struct.ngtcp2_cid, ptr }
%"class.node::MemoryRetainer" = type { ptr }
%struct.ngtcp2_cid = type { i64, [20 x i8] }
%"class.node::quic::(anonymous namespace)::RandomCIDFactory" = type { %"class.node::quic::CID::Factory", i32, [4096 x i8], %"class.node::MutexBase" }
%"class.node::quic::CID::Factory" = type { ptr }
%"class.node::MutexBase" = type { %union.pthread_mutex_t }
%union.pthread_mutex_t = type { %struct.__pthread_mutex_s }
%struct.__pthread_mutex_s = type { i32, i32, i32, i32, i32, i16, i16, %struct.__pthread_internal_list }
%struct.__pthread_internal_list = type { ptr, ptr }
%"class.node::MutexBase<node::LibuvMutexTraits>::ScopedLock" = type { ptr }
%"struct.node::crypto::CSPRNGResult" = type { i8 }

@_ZZNK4node4quic12_GLOBAL__N_116RandomCIDFactory18maybe_refresh_poolEmE4args = internal constant %"struct.node::AssertionInfo" { ptr @.str.12, ptr @.str.13, ptr @.str.14 }, align 8
@_ZN4node4quic3CIDC1EPKhm = dso_local unnamed_addr alias void (ptr, ptr, i64), ptr @_ZN4node4quic3CIDC2EPKhm

; Function Attrs: mustprogress nounwind uwtable
define linkonce_odr dso_local void @_ZN4node16LibuvMutexTraits12mutex_unlockEP15pthread_mutex_t(ptr noundef %mutex) #4 comdat align 2 {
entry:
  %mutex.addr = alloca ptr, align 8
  store ptr %mutex, ptr %mutex.addr, align 8
  %0 = load ptr, ptr %mutex.addr, align 8
  call void @uv_mutex_unlock(ptr noundef %0)
  ret void
}

; Function Attrs: mustprogress nounwind uwtable
define linkonce_odr dso_local noundef zeroext i1 @_ZNK4node6crypto12CSPRNGResult5is_okEv(ptr noundef nonnull align 1 dereferenceable(1) %this) #4 comdat align 2 {
entry:
  %this.addr = alloca ptr, align 8
  store ptr %this, ptr %this.addr, align 8
  %this1 = load ptr, ptr %this.addr, align 8
  %ok = getelementptr inbounds %"struct.node::crypto::CSPRNGResult", ptr %this1, i32 0, i32 0
  %0 = load i8, ptr %ok, align 1
  %tobool = trunc i8 %0 to i1
  ret i1 %tobool
}

; Function Attrs: mustprogress nounwind uwtable
define linkonce_odr dso_local void @_ZN4node16LibuvMutexTraits10mutex_lockEP15pthread_mutex_t(ptr noundef %mutex) #4 comdat align 2 {
entry:
  %mutex.addr = alloca ptr, align 8
  store ptr %mutex, ptr %mutex.addr, align 8
  %0 = load ptr, ptr %mutex.addr, align 8
  call void @uv_mutex_lock(ptr noundef %0)
  ret void
}

; Function Attrs: mustprogress nounwind uwtable
define linkonce_odr dso_local void @_ZN4node9MutexBaseINS_16LibuvMutexTraitsEE10ScopedLockD2Ev(ptr noundef nonnull align 8 dereferenceable(8) %this) unnamed_addr #4 comdat align 2 {
entry:
  %this.addr = alloca ptr, align 8
  store ptr %this, ptr %this.addr, align 8
  %this1 = load ptr, ptr %this.addr, align 8
  %mutex_ = getelementptr inbounds %"class.node::MutexBase<node::LibuvMutexTraits>::ScopedLock", ptr %this1, i32 0, i32 0
  %0 = load ptr, ptr %mutex_, align 8
  %mutex_2 = getelementptr inbounds %"class.node::MutexBase", ptr %0, i32 0, i32 0
  call void @_ZN4node16LibuvMutexTraits12mutex_unlockEP15pthread_mutex_t(ptr noundef %mutex_2)
  ret void
}

; Function Attrs: mustprogress nounwind uwtable
define internal void @_ZNK4node4quic12_GLOBAL__N_116RandomCIDFactory18maybe_refresh_poolEm(ptr noundef nonnull align 8 dereferenceable(4152) %this, i64 noundef %length_hint) #4 align 2 {
entry:
  %this.addr = alloca ptr, align 8
  %length_hint.addr = alloca i64, align 8
  %ref.tmp = alloca %"struct.node::crypto::CSPRNGResult", align 1
  store ptr %this, ptr %this.addr, align 8
  store i64 %length_hint, ptr %length_hint.addr, align 8
  %this1 = load ptr, ptr %this.addr, align 8
  %pos_ = getelementptr inbounds %"class.node::quic::(anonymous namespace)::RandomCIDFactory", ptr %this1, i32 0, i32 1
  %0 = load i32, ptr %pos_, align 8
  %conv = sext i32 %0 to i64
  %1 = load i64, ptr %length_hint.addr, align 8
  %add = add i64 %conv, %1
  %cmp = icmp ugt i64 %add, 4096
  br i1 %cmp, label %if.then, label %if.end10

if.then:                                          ; preds = %entry
  br label %do.body

do.body:                                          ; preds = %if.then
  %pool_ = getelementptr inbounds %"class.node::quic::(anonymous namespace)::RandomCIDFactory", ptr %this1, i32 0, i32 2
  %arraydecay = getelementptr inbounds [4096 x i8], ptr %pool_, i64 0, i64 0
  %call = call i8 @_ZN4node6crypto6CSPRNGEPvm(ptr noundef %arraydecay, i64 noundef 4096)
  %coerce.dive = getelementptr inbounds %"struct.node::crypto::CSPRNGResult", ptr %ref.tmp, i32 0, i32 0
  store i8 %call, ptr %coerce.dive, align 1
  %call2 = call noundef zeroext i1 @_ZNK4node6crypto12CSPRNGResult5is_okEv(ptr noundef nonnull align 1 dereferenceable(1) %ref.tmp)
  %lnot = xor i1 %call2, true
  %lnot3 = xor i1 %lnot, true
  %lnot4 = xor i1 %lnot3, true
  br i1 %lnot4, label %if.then6, label %if.end

if.then6:                                         ; preds = %do.body
  br label %do.body7

do.body7:                                         ; preds = %if.then6
  call void @_ZN4node6AssertERKNS_13AssertionInfoE(ptr noundef nonnull align 8 dereferenceable(24) @_ZZNK4node4quic12_GLOBAL__N_116RandomCIDFactory18maybe_refresh_poolEmE4args)
  call void @abort() #10
  unreachable

do.end:                                           ; No predecessors!
  br label %if.end

if.end:                                           ; preds = %do.end, %do.body
  br label %do.end8

do.end8:                                          ; preds = %if.end
  %pos_9 = getelementptr inbounds %"class.node::quic::(anonymous namespace)::RandomCIDFactory", ptr %this1, i32 0, i32 1
  store i32 0, ptr %pos_9, align 8
  br label %if.end10

if.end10:                                         ; preds = %do.end8, %entry
  ret void
}

; Function Attrs: mustprogress nounwind uwtable
define linkonce_odr dso_local void @_ZN4node9MutexBaseINS_16LibuvMutexTraitsEE10ScopedLockC2ERKS2_(ptr noundef nonnull align 8 dereferenceable(8) %this, ptr noundef nonnull align 8 dereferenceable(40) %mutex) unnamed_addr #4 comdat align 2 {
entry:
  %this.addr = alloca ptr, align 8
  %mutex.addr = alloca ptr, align 8
  store ptr %this, ptr %this.addr, align 8
  store ptr %mutex, ptr %mutex.addr, align 8
  %this1 = load ptr, ptr %this.addr, align 8
  %mutex_ = getelementptr inbounds %"class.node::MutexBase<node::LibuvMutexTraits>::ScopedLock", ptr %this1, i32 0, i32 0
  %0 = load ptr, ptr %mutex.addr, align 8
  store ptr %0, ptr %mutex_, align 8
  %mutex_2 = getelementptr inbounds %"class.node::MutexBase<node::LibuvMutexTraits>::ScopedLock", ptr %this1, i32 0, i32 0
  %1 = load ptr, ptr %mutex_2, align 8
  %mutex_3 = getelementptr inbounds %"class.node::MutexBase", ptr %1, i32 0, i32 0
  call void @_ZN4node16LibuvMutexTraits10mutex_lockEP15pthread_mutex_t(ptr noundef %mutex_3)
  ret void
}

; Function Attrs: mustprogress nounwind uwtable
define internal void @_ZNK4node4quic12_GLOBAL__N_116RandomCIDFactory8GenerateEm(ptr noalias sret(%"class.node::quic::CID") align 8 %agg.result, ptr noundef nonnull align 8 dereferenceable(4152) %this, i64 noundef %length_hint) unnamed_addr #4 align 2 {
entry:
  %result.ptr = alloca ptr, align 8
  %this.addr = alloca ptr, align 8
  %length_hint.addr = alloca i64, align 8
  %lock = alloca %"class.node::MutexBase<node::LibuvMutexTraits>::ScopedLock", align 8
  %start = alloca ptr, align 8
  store ptr %agg.result, ptr %result.ptr, align 8
  store ptr %this, ptr %this.addr, align 8
  store i64 %length_hint, ptr %length_hint.addr, align 8
  %this1 = load ptr, ptr %this.addr, align 8
  %mutex_ = getelementptr inbounds %"class.node::quic::(anonymous namespace)::RandomCIDFactory", ptr %this1, i32 0, i32 3
  call void @_ZN4node9MutexBaseINS_16LibuvMutexTraitsEE10ScopedLockC2ERKS2_(ptr noundef nonnull align 8 dereferenceable(8) %lock, ptr noundef nonnull align 8 dereferenceable(40) %mutex_)
  %0 = load i64, ptr %length_hint.addr, align 8
  call void @_ZNK4node4quic12_GLOBAL__N_116RandomCIDFactory18maybe_refresh_poolEm(ptr noundef nonnull align 8 dereferenceable(4152) %this1, i64 noundef %0)
  %pool_ = getelementptr inbounds %"class.node::quic::(anonymous namespace)::RandomCIDFactory", ptr %this1, i32 0, i32 2
  %arraydecay = getelementptr inbounds [4096 x i8], ptr %pool_, i64 0, i64 0
  %pos_ = getelementptr inbounds %"class.node::quic::(anonymous namespace)::RandomCIDFactory", ptr %this1, i32 0, i32 1
  %1 = load i32, ptr %pos_, align 8
  %idx.ext = sext i32 %1 to i64
  %add.ptr = getelementptr inbounds i8, ptr %arraydecay, i64 %idx.ext
  store ptr %add.ptr, ptr %start, align 8
  %2 = load i64, ptr %length_hint.addr, align 8
  %pos_2 = getelementptr inbounds %"class.node::quic::(anonymous namespace)::RandomCIDFactory", ptr %this1, i32 0, i32 1
  %3 = load i32, ptr %pos_2, align 8
  %conv = sext i32 %3 to i64
  %add = add i64 %conv, %2
  %conv3 = trunc i64 %add to i32
  store i32 %conv3, ptr %pos_2, align 8
  %4 = load ptr, ptr %start, align 8
  %5 = load i64, ptr %length_hint.addr, align 8
  call void @_ZN4node4quic3CIDC1EPKhm(ptr noundef nonnull align 8 dereferenceable(48) %agg.result, ptr noundef %4, i64 noundef %5)
  call void @_ZN4node9MutexBaseINS_16LibuvMutexTraitsEE10ScopedLockD2Ev(ptr noundef nonnull align 8 dereferenceable(8) %lock) #3
  ret void
}