; Function Attrs: mustprogress nounwind uwtable
define internal void @_ZNK4node4quic12_GLOBAL__N_116RandomCIDFactory8GenerateEm(ptr noalias sret(%"class.node::quic::CID") align 8 %agg.result, ptr noundef nonnull align 8 dereferenceable(4152) %this, i64 noundef %length_hint) unnamed_addr #4 align 2 {
entry:
  %mutex_ = getelementptr inbounds i8, ptr %this, i64 4112
  tail call void @uv_mutex_lock(ptr noundef nonnull %mutex_) #12
  %pos_.i = getelementptr inbounds i8, ptr %this, i64 8
  %0 = load i32, ptr %pos_.i, align 8
  %conv.i = sext i32 %0 to i64
  %add.i = add i64 %conv.i, %length_hint
  %cmp.i = icmp ugt i64 %add.i, 4096
  br i1 %cmp.i, label %do.body.i, label %_ZNK4node4quic12_GLOBAL__N_116RandomCIDFactory18maybe_refresh_poolEm.exit

do.body.i:                                        ; preds = %entry
  %pool_.i = getelementptr inbounds i8, ptr %this, i64 12
  %call.i = tail call i8 @_ZN4node6crypto6CSPRNGEPvm(ptr noundef nonnull %pool_.i, i64 noundef 4096) #12
  %1 = and i8 %call.i, 1
  %tobool.i.not.i = icmp eq i8 %1, 0
  br i1 %tobool.i.not.i, label %do.body7.i, label %_ZNK4node4quic12_GLOBAL__N_116RandomCIDFactory18maybe_refresh_poolEm.exit

do.body7.i:                                       ; preds = %do.body.i
  tail call void @_ZN4node6AssertERKNS_13AssertionInfoE(ptr noundef nonnull align 8 dereferenceable(24) @_ZZNK4node4quic12_GLOBAL__N_116RandomCIDFactory18maybe_refresh_poolEmE4args) #12
  tail call void @abort() #13
  unreachable

_ZNK4node4quic12_GLOBAL__N_116RandomCIDFactory18maybe_refresh_poolEm.exit: ; preds = %do.body.i, %entry
  %2 = phi i32 [ %0, %entry ], [ 0, %do.body.i ]
  %pool_ = getelementptr inbounds i8, ptr %this, i64 12
  %idx.ext = sext i32 %2 to i64
  %add.ptr = getelementptr inbounds i8, ptr %pool_, i64 %idx.ext
  %3 = trunc i64 %length_hint to i32
  %conv3 = add i32 %2, %3
  store i32 %conv3, ptr %pos_.i, align 8
  store ptr getelementptr inbounds ({ [10 x ptr] }, ptr @_ZTVN4node4quic3CIDE, i64 0, i32 0, i64 2), ptr %agg.result, align 8
  %ptr_.i.i = getelementptr inbounds i8, ptr %agg.result, i64 40
  %cid_2.i.i = getelementptr inbounds i8, ptr %agg.result, i64 8
  store ptr %cid_2.i.i, ptr %ptr_.i.i, align 8
  store i64 0, ptr %cid_2.i.i, align 8
  tail call void @ngtcp2_cid_init(ptr noundef nonnull %cid_2.i.i, ptr noundef nonnull %add.ptr, i64 noundef %length_hint) #12
  tail call void @uv_mutex_unlock(ptr noundef nonnull %mutex_) #12
  ret void
}